target datalayout = "e-m:e-p270:32:32-p271:32:32-p272:64:64-i64:64-i128:128-f80:128-n8:16:32:64-S128"
target triple = "x86_64-pc-linux-gnu"

%struct.object_id = type { [32 x i8], i32 }
%struct.used_atom = type { i32, ptr, i32, i32, %union.anon }
%union.anon = type { %struct.anon.1 }
%struct.anon.1 = type { i32, %struct.process_trailer_options, ptr, i32 }
%struct.process_trailer_options = type { i32, i32, i32, i32, i32, i32, i32, i32, ptr, ptr, ptr, ptr }
%struct.ref_array_item = type { %struct.object_id, ptr, i32, i32, ptr, ptr, ptr, ptr, ptr, [0 x i8] }
%struct.ref_array = type { i32, i32, ptr, ptr, ptr, i64 }
%struct.anon.9 = type { ptr, ptr }

@used_atom = internal global ptr null, align 8
@used_atom_cnt = internal global i32 0, align 4

; Function Attrs: nounwind uwtable
define dso_local void @filter_is_base(ptr noundef %0, ptr noundef %1) #0 {
  %3 = alloca ptr, align 8
  %4 = alloca ptr, align 8
  %5 = alloca ptr, align 8
  %6 = alloca i64, align 8
  %7 = alloca i64, align 8
  %8 = alloca ptr, align 8
  %9 = alloca i32, align 4
  %10 = alloca i64, align 8
  %11 = alloca i64, align 8
  %12 = alloca ptr, align 8
  %13 = alloca ptr, align 8
  %14 = alloca i64, align 8
  %15 = alloca i64, align 8
  %16 = alloca ptr, align 8
  %17 = alloca i32, align 4
  store ptr %0, ptr %3, align 8, !tbaa !56
  store ptr %1, ptr %4, align 8, !tbaa !66
  call void @llvm.lifetime.start.p0(i64 8, ptr %5) #11
  call void @llvm.lifetime.start.p0(i64 8, ptr %6) #11
  store i64 0, ptr %6, align 8, !tbaa !71
  call void @llvm.lifetime.start.p0(i64 8, ptr %7) #11
  call void @llvm.lifetime.start.p0(i64 8, ptr %8) #11
  %18 = load ptr, ptr %4, align 8, !tbaa !66
  %19 = getelementptr inbounds nuw %struct.ref_array, ptr %18, i32 0, i32 0
  %20 = load i32, ptr %19, align 8, !tbaa !72
  %21 = icmp ne i32 %20, 0
  br i1 %21, label %23, label %22

22:                                               ; preds = %2
  store i32 1, ptr %9, align 4
  br label %169

23:                                               ; preds = %2
  call void @llvm.lifetime.start.p0(i64 8, ptr %10) #11
  store i64 0, ptr %7, align 8, !tbaa !71
  store i64 0, ptr %10, align 8, !tbaa !71
  br label %24

24:                                               ; preds = %41, %23
  %25 = load i64, ptr %10, align 8, !tbaa !71
  %26 = load i32, ptr @used_atom_cnt, align 4, !tbaa !15
  %27 = sext i32 %26 to i64
  %28 = icmp ult i64 %25, %27
  br i1 %28, label %30, label %29

29:                                               ; preds = %24
  store i32 2, ptr %9, align 4
  call void @llvm.lifetime.end.p0(i64 8, ptr %10) #11
  br label %44

30:                                               ; preds = %24
  %31 = load ptr, ptr @used_atom, align 8, !tbaa !26
  %32 = load i64, ptr %10, align 8, !tbaa !71
  %33 = getelementptr inbounds nuw %struct.used_atom, ptr %31, i64 %32
  %34 = getelementptr inbounds nuw %struct.used_atom, ptr %33, i32 0, i32 0
  %35 = load i32, ptr %34, align 8, !tbaa !28
  %36 = icmp eq i32 %35, 46
  br i1 %36, label %37, label %40

37:                                               ; preds = %30
  %38 = load i64, ptr %7, align 8, !tbaa !71
  %39 = add i64 %38, 1
  store i64 %39, ptr %7, align 8, !tbaa !71
  br label %40

40:                                               ; preds = %37, %30
  br label %41

41:                                               ; preds = %40
  %42 = load i64, ptr %10, align 8, !tbaa !71
  %43 = add i64 %42, 1
  store i64 %43, ptr %10, align 8, !tbaa !71
  br label %24, !llvm.loop !109

44:                                               ; preds = %29
  %45 = load i64, ptr %7, align 8, !tbaa !71
  %46 = icmp ne i64 %45, 0
  br i1 %46, label %48, label %47

47:                                               ; preds = %44
  store i32 1, ptr %9, align 4
  br label %169

48:                                               ; preds = %44
  %49 = load ptr, ptr %4, align 8, !tbaa !66
  %50 = getelementptr inbounds nuw %struct.ref_array, ptr %49, i32 0, i32 0
  %51 = load i32, ptr %50, align 8, !tbaa !72
  %52 = sext i32 %51 to i64
  %53 = call ptr @xcalloc(i64 noundef %52, i64 noundef 8)
  store ptr %53, ptr %8, align 8, !tbaa !110
  %54 = load ptr, ptr %4, align 8, !tbaa !66
  %55 = getelementptr inbounds nuw %struct.ref_array, ptr %54, i32 0, i32 0
  %56 = load i32, ptr %55, align 8, !tbaa !72
  %57 = sext i32 %56 to i64
  %58 = call ptr @xcalloc(i64 noundef %57, i64 noundef 8)
  store ptr %58, ptr %5, align 8, !tbaa !97
  call void @llvm.lifetime.start.p0(i64 8, ptr %11) #11
  store i64 0, ptr %11, align 8, !tbaa !71
  br label %59

59:                                               ; preds = %109, %48
  %60 = load i64, ptr %11, align 8, !tbaa !71
  %61 = load ptr, ptr %4, align 8, !tbaa !66
  %62 = getelementptr inbounds nuw %struct.ref_array, ptr %61, i32 0, i32 0
  %63 = load i32, ptr %62, align 8, !tbaa !72
  %64 = sext i32 %63 to i64
  %65 = icmp ult i64 %60, %64
  br i1 %65, label %67, label %66

66:                                               ; preds = %59
  store i32 5, ptr %9, align 4
  call void @llvm.lifetime.end.p0(i64 8, ptr %11) #11
  br label %112

67:                                               ; preds = %59
  call void @llvm.lifetime.start.p0(i64 8, ptr %12) #11
  %68 = load ptr, ptr %4, align 8, !tbaa !66
  %69 = getelementptr inbounds nuw %struct.ref_array, ptr %68, i32 0, i32 2
  %70 = load ptr, ptr %69, align 8, !tbaa !78
  %71 = load i64, ptr %11, align 8, !tbaa !71
  %72 = getelementptr inbounds nuw ptr, ptr %70, i64 %71
  %73 = load ptr, ptr %72, align 8, !tbaa !69
  %74 = getelementptr inbounds nuw %struct.ref_array_item, ptr %73, i32 0, i32 9
  %75 = getelementptr inbounds [0 x i8], ptr %74, i64 0, i64 0
  store ptr %75, ptr %12, align 8, !tbaa !13
  call void @llvm.lifetime.start.p0(i64 8, ptr %13) #11
  %76 = load ptr, ptr %12, align 8, !tbaa !13
  %77 = call ptr @lookup_commit_reference_by_name_gently(ptr noundef %76, i32 noundef 1)
  store ptr %77, ptr %13, align 8, !tbaa !99
  %78 = load i64, ptr %7, align 8, !tbaa !71
  %79 = call ptr @xcalloc(i64 noundef %78, i64 noundef 8)
  %80 = load ptr, ptr %4, align 8, !tbaa !66
  %81 = getelementptr inbounds nuw %struct.ref_array, ptr %80, i32 0, i32 2
  %82 = load ptr, ptr %81, align 8, !tbaa !78
  %83 = load i64, ptr %11, align 8, !tbaa !71
  %84 = getelementptr inbounds nuw ptr, ptr %82, i64 %83
  %85 = load ptr, ptr %84, align 8, !tbaa !69
  %86 = getelementptr inbounds nuw %struct.ref_array_item, ptr %85, i32 0, i32 8
  store ptr %79, ptr %86, align 8, !tbaa !53
  %87 = load ptr, ptr %13, align 8, !tbaa !99
  %88 = icmp ne ptr %87, null
  br i1 %88, label %90, label %89

89:                                               ; preds = %67
  store i32 7, ptr %9, align 4
  br label %106

90:                                               ; preds = %67
  %91 = load ptr, ptr %4, align 8, !tbaa !66
  %92 = getelementptr inbounds nuw %struct.ref_array, ptr %91, i32 0, i32 2
  %93 = load ptr, ptr %92, align 8, !tbaa !78
  %94 = load i64, ptr %11, align 8, !tbaa !71
  %95 = getelementptr inbounds nuw ptr, ptr %93, i64 %94
  %96 = load ptr, ptr %95, align 8, !tbaa !69
  %97 = load ptr, ptr %8, align 8, !tbaa !110
  %98 = load i64, ptr %6, align 8, !tbaa !71
  %99 = getelementptr inbounds nuw ptr, ptr %97, i64 %98
  store ptr %96, ptr %99, align 8, !tbaa !69
  %100 = load ptr, ptr %13, align 8, !tbaa !99
  %101 = load ptr, ptr %5, align 8, !tbaa !97
  %102 = load i64, ptr %6, align 8, !tbaa !71
  %103 = getelementptr inbounds nuw ptr, ptr %101, i64 %102
  store ptr %100, ptr %103, align 8, !tbaa !99
  %104 = load i64, ptr %6, align 8, !tbaa !71
  %105 = add i64 %104, 1
  store i64 %105, ptr %6, align 8, !tbaa !71
  store i32 0, ptr %9, align 4
  br label %106

106:                                              ; preds = %90, %89
  call void @llvm.lifetime.end.p0(i64 8, ptr %13) #11
  call void @llvm.lifetime.end.p0(i64 8, ptr %12) #11
  %107 = load i32, ptr %9, align 4
  switch i32 %107, label %172 [
    i32 0, label %108
    i32 7, label %109
  ]

108:                                              ; preds = %106
  br label %109

109:                                              ; preds = %108, %106
  %110 = load i64, ptr %11, align 8, !tbaa !71
  %111 = add i64 %110, 1
  store i64 %111, ptr %11, align 8, !tbaa !71
  br label %59, !llvm.loop !111

112:                                              ; preds = %66
  call void @llvm.lifetime.start.p0(i64 8, ptr %14) #11
  store i64 0, ptr %14, align 8, !tbaa !71
  call void @llvm.lifetime.start.p0(i64 8, ptr %15) #11
  store i64 0, ptr %15, align 8, !tbaa !71
  br label %113

113:                                              ; preds = %163, %112
  %114 = load i64, ptr %14, align 8, !tbaa !71
  %115 = load i32, ptr @used_atom_cnt, align 4, !tbaa !15
  %116 = sext i32 %115 to i64
  %117 = icmp ult i64 %114, %116
  br i1 %117, label %119, label %118

118:                                              ; preds = %113
  store i32 8, ptr %9, align 4
  call void @llvm.lifetime.end.p0(i64 8, ptr %15) #11
  call void @llvm.lifetime.end.p0(i64 8, ptr %14) #11
  br label %166

119:                                              ; preds = %113
  call void @llvm.lifetime.start.p0(i64 8, ptr %16) #11
  call void @llvm.lifetime.start.p0(i64 4, ptr %17) #11
  %120 = load ptr, ptr @used_atom, align 8, !tbaa !26
  %121 = load i64, ptr %14, align 8, !tbaa !71
  %122 = getelementptr inbounds nuw %struct.used_atom, ptr %120, i64 %121
  %123 = getelementptr inbounds nuw %struct.used_atom, ptr %122, i32 0, i32 0
  %124 = load i32, ptr %123, align 8, !tbaa !28
  %125 = icmp ne i32 %124, 46
  br i1 %125, label %126, label %127

126:                                              ; preds = %119
  store i32 10, ptr %9, align 4
  br label %160

127:                                              ; preds = %119
  %128 = load ptr, ptr @used_atom, align 8, !tbaa !26
  %129 = load i64, ptr %14, align 8, !tbaa !71
  %130 = getelementptr inbounds nuw %struct.used_atom, ptr %128, i64 %129
  %131 = getelementptr inbounds nuw %struct.used_atom, ptr %130, i32 0, i32 4
  %132 = getelementptr inbounds nuw %struct.anon.9, ptr %131, i32 0, i32 1
  %133 = load ptr, ptr %132, align 8, !tbaa !14
  store ptr %133, ptr %16, align 8, !tbaa !99
  %134 = load ptr, ptr %3, align 8, !tbaa !56
  %135 = load ptr, ptr %16, align 8, !tbaa !99
  %136 = load ptr, ptr %5, align 8, !tbaa !97
  %137 = load i64, ptr %6, align 8, !tbaa !71
  %138 = call i32 @get_branch_base_for_tip(ptr noundef %134, ptr noundef %135, ptr noundef %136, i64 noundef %137)
  store i32 %138, ptr %17, align 4, !tbaa !15
  %139 = load i32, ptr %17, align 4, !tbaa !15
  %140 = icmp slt i32 %139, 0
  br i1 %140, label %141, label %142

141:                                              ; preds = %127
  store i32 10, ptr %9, align 4
  br label %160

142:                                              ; preds = %127
  %143 = load ptr, ptr @used_atom, align 8, !tbaa !26
  %144 = load i64, ptr %14, align 8, !tbaa !71
  %145 = getelementptr inbounds nuw %struct.used_atom, ptr %143, i64 %144
  %146 = getelementptr inbounds nuw %struct.used_atom, ptr %145, i32 0, i32 4
  %147 = getelementptr inbounds nuw %struct.anon.9, ptr %146, i32 0, i32 0
  %148 = load ptr, ptr %147, align 8, !tbaa !14
  %149 = call ptr @xstrdup(ptr noundef %148)
  %150 = load ptr, ptr %8, align 8, !tbaa !110
  %151 = load i32, ptr %17, align 4, !tbaa !15
  %152 = sext i32 %151 to i64
  %153 = getelementptr inbounds ptr, ptr %150, i64 %152
  %154 = load ptr, ptr %153, align 8, !tbaa !69
  %155 = getelementptr inbounds nuw %struct.ref_array_item, ptr %154, i32 0, i32 8
  %156 = load ptr, ptr %155, align 8, !tbaa !53
  %157 = load i64, ptr %15, align 8, !tbaa !71
  %158 = add i64 %157, 1
  store i64 %158, ptr %15, align 8, !tbaa !71
  %159 = getelementptr inbounds nuw ptr, ptr %156, i64 %157
  store ptr %149, ptr %159, align 8, !tbaa !13
  store i32 0, ptr %9, align 4
  br label %160

160:                                              ; preds = %142, %141, %126
  call void @llvm.lifetime.end.p0(i64 4, ptr %17) #11
  call void @llvm.lifetime.end.p0(i64 8, ptr %16) #11
  %161 = load i32, ptr %9, align 4
  switch i32 %161, label %172 [
    i32 0, label %162
    i32 10, label %163
  ]

162:                                              ; preds = %160
  br label %163

163:                                              ; preds = %162, %160
  %164 = load i64, ptr %14, align 8, !tbaa !71
  %165 = add i64 %164, 1
  store i64 %165, ptr %14, align 8, !tbaa !71
  br label %113, !llvm.loop !112

166:                                              ; preds = %118
  %167 = load ptr, ptr %8, align 8, !tbaa !110
  call void @free(ptr noundef %167) #11
  %168 = load ptr, ptr %5, align 8, !tbaa !97
  call void @free(ptr noundef %168) #11
  store i32 0, ptr %9, align 4
  br label %169

169:                                              ; preds = %166, %47, %22
  call void @llvm.lifetime.end.p0(i64 8, ptr %8) #11
  call void @llvm.lifetime.end.p0(i64 8, ptr %7) #11
  call void @llvm.lifetime.end.p0(i64 8, ptr %6) #11
  call void @llvm.lifetime.end.p0(i64 8, ptr %5) #11
  %170 = load i32, ptr %9, align 4
  switch i32 %170, label %172 [
    i32 0, label %171
    i32 1, label %171
  ]

171:                                              ; preds = %169, %169
  ret void

172:                                              ; preds = %169, %160, %106
  unreachable
}