; Function Attrs: nounwind uwtable
define dso_local void @filter_is_base(ptr noundef %0, ptr noundef readonly captures(none) %1) local_unnamed_addr #0 {
  %3 = load i32, ptr %1, align 8, !tbaa !60
  %.not = icmp eq i32 %3, 0
  br i1 %.not, label %._crit_edge.thread, label %.preheader52

.preheader52:                                     ; preds = %2
  %4 = load i32, ptr @used_atom_cnt, align 4, !tbaa !4
  %5 = sext i32 %4 to i64
  %.not64 = icmp eq i32 %4, 0
  br i1 %.not64, label %._crit_edge.thread, label %.lr.ph

.lr.ph:                                           ; preds = %.preheader52
  %6 = load ptr, ptr @used_atom, align 8, !tbaa !25
  br label %7

._crit_edge:                                      ; preds = %7
  %.not49 = icmp eq i64 %spec.select, 0
  br i1 %.not49, label %._crit_edge.thread, label %13

7:                                                ; preds = %.lr.ph, %7
  %.04054 = phi i64 [ 0, %.lr.ph ], [ %spec.select, %7 ]
  %.04553 = phi i64 [ 0, %.lr.ph ], [ %12, %7 ]
  %8 = getelementptr inbounds nuw %struct.used_atom, ptr %6, i64 %.04553
  %9 = load i32, ptr %8, align 8, !tbaa !27
  %10 = icmp eq i32 %9, 46
  %11 = zext i1 %10 to i64
  %spec.select = add i64 %.04054, %11
  %12 = add nuw i64 %.04553, 1
  %exitcond.not = icmp eq i64 %12, %5
  br i1 %exitcond.not, label %._crit_edge, label %7, !llvm.loop !97

13:                                               ; preds = %._crit_edge
  %14 = sext i32 %3 to i64
  %15 = tail call ptr @xcalloc(i64 noundef %14, i64 noundef 8) #23
  %16 = load i32, ptr %1, align 8, !tbaa !60
  %17 = sext i32 %16 to i64
  %18 = tail call ptr @xcalloc(i64 noundef %17, i64 noundef 8) #23
  %19 = load i32, ptr %1, align 8, !tbaa !60
  %.not65 = icmp eq i32 %19, 0
  br i1 %.not65, label %.preheader, label %.lr.ph58

.lr.ph58:                                         ; preds = %13
  %20 = getelementptr inbounds nuw i8, ptr %1, i64 8
  %.pre = load ptr, ptr %20, align 8, !tbaa !66
  br label %22

.preheader:                                       ; preds = %37, %13
  %.0.lcssa = phi i64 [ 0, %13 ], [ %.1, %37 ]
  %21 = load i32, ptr @used_atom_cnt, align 4, !tbaa !4
  %.not66 = icmp eq i32 %21, 0
  br i1 %.not66, label %._crit_edge63, label %.lr.ph62

22:                                               ; preds = %.lr.ph58, %37
  %23 = phi ptr [ %.pre, %.lr.ph58 ], [ %29, %37 ]
  %.056 = phi i64 [ 0, %.lr.ph58 ], [ %.1, %37 ]
  %.04655 = phi i64 [ 0, %.lr.ph58 ], [ %38, %37 ]
  %24 = getelementptr inbounds nuw ptr, ptr %23, i64 %.04655
  %25 = load ptr, ptr %24, align 8, !tbaa !67
  %26 = getelementptr inbounds nuw i8, ptr %25, i64 96
  %27 = tail call ptr @lookup_commit_reference_by_name_gently(ptr noundef nonnull %26, i32 noundef 1) #23
  %28 = tail call ptr @xcalloc(i64 noundef %spec.select, i64 noundef 8) #23
  %29 = load ptr, ptr %20, align 8, !tbaa !66
  %30 = getelementptr inbounds nuw ptr, ptr %29, i64 %.04655
  %31 = load ptr, ptr %30, align 8, !tbaa !67
  %32 = getelementptr inbounds nuw i8, ptr %31, i64 88
  store ptr %28, ptr %32, align 8, !tbaa !84
  %.not51 = icmp eq ptr %27, null
  br i1 %.not51, label %37, label %33

33:                                               ; preds = %22
  %34 = getelementptr inbounds nuw ptr, ptr %15, i64 %.056
  store ptr %31, ptr %34, align 8, !tbaa !67
  %35 = getelementptr inbounds nuw ptr, ptr %18, i64 %.056
  store ptr %27, ptr %35, align 8, !tbaa !88
  %36 = add i64 %.056, 1
  br label %37

37:                                               ; preds = %22, %33
  %.1 = phi i64 [ %36, %33 ], [ %.056, %22 ]
  %38 = add nuw i64 %.04655, 1
  %39 = load i32, ptr %1, align 8, !tbaa !60
  %40 = sext i32 %39 to i64
  %41 = icmp ult i64 %38, %40
  br i1 %41, label %22, label %.preheader, !llvm.loop !98

._crit_edge63:                                    ; preds = %62, %.preheader
  tail call void @free(ptr noundef %15) #23
  tail call void @free(ptr noundef %18) #23
  br label %._crit_edge.thread

.lr.ph62:                                         ; preds = %.preheader, %62
  %.04261 = phi i64 [ %.143, %62 ], [ 0, %.preheader ]
  %.04460 = phi i64 [ %63, %62 ], [ 0, %.preheader ]
  %42 = load ptr, ptr @used_atom, align 8, !tbaa !25
  %43 = getelementptr inbounds nuw %struct.used_atom, ptr %42, i64 %.04460
  %44 = load i32, ptr %43, align 8, !tbaa !27
  %.not50 = icmp eq i32 %44, 46
  br i1 %.not50, label %45, label %62

45:                                               ; preds = %.lr.ph62
  %46 = getelementptr inbounds nuw i8, ptr %43, i64 32
  %47 = load ptr, ptr %46, align 8, !tbaa !15
  %48 = tail call i32 @get_branch_base_for_tip(ptr noundef %0, ptr noundef %47, ptr noundef %18, i64 noundef %.0.lcssa) #23
  %49 = icmp slt i32 %48, 0
  br i1 %49, label %62, label %50

50:                                               ; preds = %45
  %51 = load ptr, ptr @used_atom, align 8, !tbaa !25
  %52 = getelementptr inbounds nuw %struct.used_atom, ptr %51, i64 %.04460, i32 4
  %53 = load ptr, ptr %52, align 8, !tbaa !15
  %54 = tail call ptr @xstrdup(ptr noundef %53) #23
  %55 = zext nneg i32 %48 to i64
  %56 = getelementptr inbounds nuw ptr, ptr %15, i64 %55
  %57 = load ptr, ptr %56, align 8, !tbaa !67
  %58 = getelementptr inbounds nuw i8, ptr %57, i64 88
  %59 = load ptr, ptr %58, align 8, !tbaa !84
  %60 = add i64 %.04261, 1
  %61 = getelementptr inbounds nuw ptr, ptr %59, i64 %.04261
  store ptr %54, ptr %61, align 8, !tbaa !59
  br label %62

62:                                               ; preds = %45, %.lr.ph62, %50
  %.143 = phi i64 [ %60, %50 ], [ %.04261, %.lr.ph62 ], [ %.04261, %45 ]
  %63 = add nuw i64 %.04460, 1
  %64 = load i32, ptr @used_atom_cnt, align 4, !tbaa !4
  %65 = sext i32 %64 to i64
  %66 = icmp ult i64 %63, %65
  br i1 %66, label %.lr.ph62, label %._crit_edge63, !llvm.loop !99

._crit_edge.thread:                               ; preds = %.preheader52, %._crit_edge, %2, %._crit_edge63
  ret void
}